; Function Attrs: mustprogress uwtable
define dso_local void @_ZNK4absl12Notification19WaitForNotificationEv(ptr noundef nonnull align 8 dereferenceable(9) %0) local_unnamed_addr #0 align 2 {
  %2 = alloca %"class.absl::Condition", align 8
  tail call void @AbslInternalTraceWait(ptr noundef nonnull %0, i32 noundef 2)
  %3 = getelementptr inbounds nuw i8, ptr %0, i64 8
  %4 = load atomic i8, ptr %3 acquire, align 8
  %5 = trunc i8 %4 to i1
  br i1 %5, label %11, label %6

6:                                                ; preds = %1
  call void @llvm.lifetime.start.p0(i64 32, ptr nonnull %2) #8
  %7 = getelementptr inbounds nuw i8, ptr %2, i64 16
  %8 = getelementptr inbounds nuw i8, ptr %2, i64 8
  store i64 0, ptr %8, align 8
  store ptr @_ZN4absl9Condition19CastAndCallFunctionIKSt6atomicIbEEEbPKS0_, ptr %7, align 8, !tbaa !4
  %9 = getelementptr inbounds nuw i8, ptr %2, i64 24
  store ptr %3, ptr %9, align 8, !tbaa !9
  store ptr @_ZN4absl12Notification23HasBeenNotifiedInternalEPKSt6atomicIbE, ptr %2, align 8
  %10 = call noundef zeroext i1 @_ZN4absl5Mutex14LockWhenCommonERKNS_9ConditionENS_24synchronization_internal13KernelTimeoutEb(ptr noundef nonnull align 8 dereferenceable(8) %0, ptr noundef nonnull align 8 dereferenceable(32) %2, i64 -1, i1 noundef zeroext true)
  call void @llvm.lifetime.end.p0(i64 32, ptr nonnull %2) #8
  call void @_ZN4absl5Mutex6UnlockEv(ptr noundef nonnull align 8 dereferenceable(8) %0)
  br label %11

11:                                               ; preds = %6, %1
  call void @AbslInternalTraceContinue(ptr noundef nonnull %0, i32 noundef 2)
  ret void
}